target datalayout = "e-m:e-p270:32:32-p271:32:32-p272:64:64-i64:64-i128:128-f80:128-n8:16:32:64-S128"
target triple = "x86_64-pc-linux-gnu"

%struct.AVHWFramesConstraints = type { ptr, ptr, i32, i32, i32, i32 }

; Function Attrs: nounwind uwtable
define void @av_hwframe_constraints_free(ptr noundef %0) #0 {
  %2 = alloca ptr, align 8
  store ptr %0, ptr %2, align 8, !tbaa !110
  %3 = load ptr, ptr %2, align 8, !tbaa !110
  %4 = load ptr, ptr %3, align 8, !tbaa !103
  %5 = icmp ne ptr %4, null
  br i1 %5, label %6, label %13

6:                                                ; preds = %1
  %7 = load ptr, ptr %2, align 8, !tbaa !110
  %8 = load ptr, ptr %7, align 8, !tbaa !103
  %9 = getelementptr inbounds nuw %struct.AVHWFramesConstraints, ptr %8, i32 0, i32 0
  call void @av_freep(ptr noundef %9)
  %10 = load ptr, ptr %2, align 8, !tbaa !110
  %11 = load ptr, ptr %10, align 8, !tbaa !103
  %12 = getelementptr inbounds nuw %struct.AVHWFramesConstraints, ptr %11, i32 0, i32 1
  call void @av_freep(ptr noundef %12)
  br label %13

13:                                               ; preds = %6, %1
  %14 = load ptr, ptr %2, align 8, !tbaa !110
  call void @av_freep(ptr noundef %14)
  ret void
}