; Function Attrs: nounwind uwtable
define void @av_hwframe_constraints_free(ptr noundef %0) local_unnamed_addr #5 {
  %2 = load ptr, ptr %0, align 8, !tbaa !96
  %.not = icmp eq ptr %2, null
  br i1 %.not, label %6, label %3

3:                                                ; preds = %1
  tail call void @av_freep(ptr noundef nonnull %2) #11
  %4 = load ptr, ptr %0, align 8, !tbaa !96
  %5 = getelementptr inbounds nuw i8, ptr %4, i64 8
  tail call void @av_freep(ptr noundef nonnull %5) #11
  br label %6

6:                                                ; preds = %3, %1
  tail call void @av_freep(ptr noundef nonnull %0) #11
  ret void
}